target datalayout = "e-m:e-p270:32:32-p271:32:32-p272:64:64-i64:64-i128:128-f80:128-n8:16:32:64-S128"
target triple = "x86_64-pc-linux-gnu"

@.str = private unnamed_addr constant [3 x i8] c"_G\00", align 1
@.str.1 = private unnamed_addr constant [8 x i8] c"Lua 5.5\00", align 1
@.str.2 = private unnamed_addr constant [9 x i8] c"_VERSION\00", align 1

; Function Attrs: nounwind uwtable
define dso_local i32 @luaopen_base(ptr noundef %0) #0 {
  %2 = alloca ptr, align 8
  store ptr %0, ptr %2, align 8, !tbaa !4
  %3 = load ptr, ptr %2, align 8, !tbaa !4
  %4 = call i32 @lua_rawgeti(ptr noundef %3, i32 noundef -1001000, i64 noundef 2)
  %5 = load ptr, ptr %2, align 8, !tbaa !4
  call void @luaL_setfuncs(ptr noundef %5, ptr noundef @base_funcs, i32 noundef 0)
  %6 = load ptr, ptr %2, align 8, !tbaa !4
  call void @lua_pushvalue(ptr noundef %6, i32 noundef -1)
  %7 = load ptr, ptr %2, align 8, !tbaa !4
  call void @lua_setfield(ptr noundef %7, i32 noundef -2, ptr noundef @.str)
  %8 = load ptr, ptr %2, align 8, !tbaa !4
  %9 = call ptr @lua_pushstring(ptr noundef %8, ptr noundef @.str.1)
  %10 = load ptr, ptr %2, align 8, !tbaa !4
  call void @lua_setfield(ptr noundef %10, i32 noundef -2, ptr noundef @.str.2)
  ret i32 1
}