; Function Attrs: nounwind uwtable
define dso_local noundef i32 @luaopen_base(ptr noundef %0) local_unnamed_addr #0 {
  %2 = tail call i32 @lua_rawgeti(ptr noundef %0, i32 noundef -1001000, i64 noundef 2) #9
  tail call void @luaL_setfuncs(ptr noundef %0, ptr noundef nonnull @base_funcs, i32 noundef 0) #9
  tail call void @lua_pushvalue(ptr noundef %0, i32 noundef -1) #9
  tail call void @lua_setfield(ptr noundef %0, i32 noundef -2, ptr noundef nonnull @.str) #9
  %3 = tail call ptr @lua_pushstring(ptr noundef %0, ptr noundef nonnull @.str.1) #9
  tail call void @lua_setfield(ptr noundef %0, i32 noundef -2, ptr noundef nonnull @.str.2) #9
  ret i32 1
}